; Function Attrs: mustprogress nounwind uwtable
define internal void @_ZNSt23_Sp_counted_ptr_inplaceIN12_GLOBAL__N_19PHashImplESaIvELN9__gnu_cxx12_Lock_policyE2EE10_M_disposeEv(ptr noundef nonnull align 8 dereferenceable(600) %0) unnamed_addr #6 align 2 personality ptr @__gxx_personality_v0 {
  %2 = getelementptr inbounds i8, ptr %0, i64 504
  tail call void @_ZN2cv3MatD1Ev(ptr noundef nonnull align 8 dereferenceable(96) %2) #16
  %3 = getelementptr inbounds i8, ptr %0, i64 408
  tail call void @_ZN2cv3MatD1Ev(ptr noundef nonnull align 8 dereferenceable(96) %3) #16
  %4 = getelementptr inbounds i8, ptr %0, i64 312
  tail call void @_ZN2cv3MatD1Ev(ptr noundef nonnull align 8 dereferenceable(96) %4) #16
  %5 = getelementptr inbounds i8, ptr %0, i64 216
  tail call void @_ZN2cv3MatD1Ev(ptr noundef nonnull align 8 dereferenceable(96) %5) #16
  %6 = getelementptr inbounds i8, ptr %0, i64 120
  tail call void @_ZN2cv3MatD1Ev(ptr noundef nonnull align 8 dereferenceable(96) %6) #16
  %7 = getelementptr inbounds i8, ptr %0, i64 24
  tail call void @_ZN2cv3MatD1Ev(ptr noundef nonnull align 8 dereferenceable(96) %7) #16
  ret void
}